target datalayout = "e-m:e-p270:32:32-p271:32:32-p272:64:64-i64:64-i128:128-f80:128-n8:16:32:64-S128"
target triple = "x86_64-unknown-linux-gnu"

%"class.facebook::hermes::HermesRuntimeImpl" = type <{ %"class.facebook::hermes::HermesRuntime", %"class.facebook::jsi::Instrumentation", %"class.facebook::hermes::HermesRuntimeImpl::ManagedValues", %"class.facebook::hermes::HermesRuntimeImpl::ManagedValues.1", %"class.std::shared_ptr", ptr, %"class.std::unique_ptr", i32, %"struct.hermes::hbc::CompileFlags", i8, [7 x i8] }>
%"class.facebook::hermes::HermesRuntime" = type { %"class.facebook::jsi::Runtime" }
%"class.facebook::jsi::Runtime" = type { ptr }
%"class.facebook::jsi::Instrumentation" = type { ptr }
%"class.facebook::hermes::HermesRuntimeImpl::ManagedValues" = type { %"class.hermes::ManagedChunkedList" }
%"class.hermes::ManagedChunkedList" = type { ptr, i64, %"class.hermes::ExponentialMovingAverage", ptr, double }
%"class.hermes::ExponentialMovingAverage" = type { double, double }
%"class.facebook::hermes::HermesRuntimeImpl::ManagedValues.1" = type { %"class.hermes::ManagedChunkedList.2" }
%"class.hermes::ManagedChunkedList.2" = type { ptr, i64, %"class.hermes::ExponentialMovingAverage", ptr, double }
%"class.std::shared_ptr" = type { %"class.std::__shared_ptr" }
%"class.std::__shared_ptr" = type { ptr, %"class.std::__shared_count" }
%"class.std::__shared_count" = type { ptr }
%"class.std::unique_ptr" = type { %"struct.std::__uniq_ptr_data" }
%"struct.std::__uniq_ptr_data" = type { %"class.std::__uniq_ptr_impl" }
%"class.std::__uniq_ptr_impl" = type { %"class.std::tuple" }
%"class.std::tuple" = type { %"struct.std::_Tuple_impl" }
%"struct.std::_Tuple_impl" = type { %"struct.std::_Head_base.4" }
%"struct.std::_Head_base.4" = type { ptr }
%"struct.hermes::hbc::CompileFlags" = type { i8, i8, i8, i32, i32, i8, %"class.llvh::Optional", i8, i8, i8, i8, i8, i8, i32 }
%"class.llvh::Optional" = type { %"struct.llvh::optional_detail::OptionalStorage" }
%"struct.llvh::optional_detail::OptionalStorage" = type { %"struct.llvh::AlignedCharArrayUnion", i8 }
%"struct.llvh::AlignedCharArrayUnion" = type { %"struct.llvh::AlignedCharArray" }
%"struct.llvh::AlignedCharArray" = type { [1 x i8] }
%"class.std::recursive_mutex" = type { %"class.std::__recursive_mutex_base" }
%"class.std::__recursive_mutex_base" = type { %union.pthread_mutex_t }
%union.pthread_mutex_t = type { %struct.__pthread_mutex_s }
%struct.__pthread_mutex_s = type { i32, i32, i32, i32, i32, i16, i16, %struct.__pthread_internal_list }
%struct.__pthread_internal_list = type { ptr, ptr }
%"class.std::unique_ptr.437" = type { %"struct.std::__uniq_ptr_data.438" }
%"struct.std::__uniq_ptr_data.438" = type { %"class.std::__uniq_ptr_impl.439" }
%"class.std::__uniq_ptr_impl.439" = type { %"class.std::tuple.440" }
%"class.std::tuple.440" = type { %"struct.std::_Tuple_impl.441" }
%"struct.std::_Tuple_impl.441" = type { %"struct.std::_Head_base.444" }
%"struct.std::_Head_base.444" = type { ptr }
%"class.facebook::jsi::detail::ThreadSafeRuntimeImpl" = type { %"class.facebook::jsi::WithRuntimeDecorator", %"class.facebook::hermes::HermesRuntimeImpl", %"struct.facebook::jsi::detail::WithLock" }
%"class.facebook::jsi::WithRuntimeDecorator" = type { %"class.facebook::jsi::RuntimeDecorator", ptr }
%"class.facebook::jsi::RuntimeDecorator" = type { %"class.facebook::jsi::ThreadSafeRuntime", %"class.facebook::jsi::Instrumentation", ptr }
%"class.facebook::jsi::ThreadSafeRuntime" = type { %"class.facebook::jsi::Runtime" }
%"struct.facebook::jsi::detail::WithLock" = type { %"class.facebook::hermes::(anonymous namespace)::HermesMutex" }
%"class.facebook::hermes::(anonymous namespace)::HermesMutex" = type { %"class.std::recursive_mutex" }

; Function Attrs: mustprogress nounwind uwtable
define internal noundef nonnull align 1 dereferenceable(1) ptr @_ZNSt10_Head_baseILm1ESt14default_deleteIN8facebook3jsi6detail21ThreadSafeRuntimeImplINS1_6hermes17HermesRuntimeImplENS5_12_GLOBAL__N_111HermesMutexEEEELb1EE7_M_headERSB_(ptr noundef nonnull align 1 dereferenceable(1) %__b) #1 align 2 {
entry:
  %__b.addr = alloca ptr, align 8
  store ptr %__b, ptr %__b.addr, align 8
  %0 = load ptr, ptr %__b.addr, align 8
  ret ptr %0
}

; Function Attrs: mustprogress nounwind uwtable
define linkonce_odr hidden void @_ZN8facebook3jsi17ThreadSafeRuntimeD2Ev(ptr noundef nonnull align 8 dereferenceable(8) %this) unnamed_addr #1 comdat align 2 {
entry:
  %this.addr = alloca ptr, align 8
  store ptr %this, ptr %this.addr, align 8
  %this1 = load ptr, ptr %this.addr, align 8
  call void @_ZN8facebook3jsi7RuntimeD2Ev(ptr noundef nonnull align 8 dereferenceable(8) %this1) #19
  ret void
}

; Function Attrs: mustprogress nounwind uwtable
define linkonce_odr void @_ZN8facebook3jsi15InstrumentationD2Ev(ptr noundef nonnull align 8 dereferenceable(8) %this) unnamed_addr #1 comdat align 2 {
entry:
  %this.addr = alloca ptr, align 8
  store ptr %this, ptr %this.addr, align 8
  ret void
}

; Function Attrs: mustprogress nounwind uwtable
define internal noundef nonnull align 1 dereferenceable(1) ptr @_ZNSt11_Tuple_implILm1EJSt14default_deleteIN8facebook3jsi6detail21ThreadSafeRuntimeImplINS1_6hermes17HermesRuntimeImplENS5_12_GLOBAL__N_111HermesMutexEEEEEE7_M_headERSB_(ptr noundef nonnull align 1 dereferenceable(1) %__t) #1 align 2 {
entry:
  %__t.addr = alloca ptr, align 8
  store ptr %__t, ptr %__t.addr, align 8
  %0 = load ptr, ptr %__t.addr, align 8
  %call = call noundef nonnull align 1 dereferenceable(1) ptr @_ZNSt10_Head_baseILm1ESt14default_deleteIN8facebook3jsi6detail21ThreadSafeRuntimeImplINS1_6hermes17HermesRuntimeImplENS5_12_GLOBAL__N_111HermesMutexEEEELb1EE7_M_headERSB_(ptr noundef nonnull align 1 dereferenceable(1) %0) #19
  ret ptr %call
}

; Function Attrs: mustprogress nounwind uwtable
define internal noundef nonnull align 8 dereferenceable(8) ptr @_ZNSt10_Head_baseILm0EPN8facebook3jsi6detail21ThreadSafeRuntimeImplINS0_6hermes17HermesRuntimeImplENS4_12_GLOBAL__N_111HermesMutexEEELb0EE7_M_headERSA_(ptr noundef nonnull align 8 dereferenceable(8) %__b) #1 align 2 {
entry:
  %__b.addr = alloca ptr, align 8
  store ptr %__b, ptr %__b.addr, align 8
  %0 = load ptr, ptr %__b.addr, align 8
  %_M_head_impl = getelementptr inbounds %"struct.std::_Head_base.444", ptr %0, i32 0, i32 0
  ret ptr %_M_head_impl
}

; Function Attrs: mustprogress nounwind uwtable
define linkonce_odr hidden void @_ZN8facebook3jsi16RuntimeDecoratorINS_6hermes17HermesRuntimeImplENS0_17ThreadSafeRuntimeEED2Ev(ptr noundef nonnull align 8 dereferenceable(24) %this) unnamed_addr #1 comdat align 2 {
entry:
  %this.addr = alloca ptr, align 8
  store ptr %this, ptr %this.addr, align 8
  %this1 = load ptr, ptr %this.addr, align 8
  %0 = getelementptr inbounds i8, ptr %this1, i64 8
  call void @_ZN8facebook3jsi15InstrumentationD2Ev(ptr noundef nonnull align 8 dereferenceable(8) %0) #19
  call void @_ZN8facebook3jsi17ThreadSafeRuntimeD2Ev(ptr noundef nonnull align 8 dereferenceable(8) %this1) #19
  ret void
}

; Function Attrs: mustprogress nounwind uwtable
define internal noundef nonnull align 1 dereferenceable(1) ptr @_ZSt12__get_helperILm1ESt14default_deleteIN8facebook3jsi6detail21ThreadSafeRuntimeImplINS1_6hermes17HermesRuntimeImplENS5_12_GLOBAL__N_111HermesMutexEEEEJEERT0_RSt11_Tuple_implIXT_EJSB_DpT1_EE(ptr noundef nonnull align 1 dereferenceable(1) %__t) #1 {
entry:
  %__t.addr = alloca ptr, align 8
  store ptr %__t, ptr %__t.addr, align 8
  %0 = load ptr, ptr %__t.addr, align 8
  %call = call noundef nonnull align 1 dereferenceable(1) ptr @_ZNSt11_Tuple_implILm1EJSt14default_deleteIN8facebook3jsi6detail21ThreadSafeRuntimeImplINS1_6hermes17HermesRuntimeImplENS5_12_GLOBAL__N_111HermesMutexEEEEEE7_M_headERSB_(ptr noundef nonnull align 1 dereferenceable(1) %0) #19
  ret ptr %call
}

; Function Attrs: mustprogress nounwind uwtable
define internal noundef nonnull align 8 dereferenceable(8) ptr @_ZNSt11_Tuple_implILm0EJPN8facebook3jsi6detail21ThreadSafeRuntimeImplINS0_6hermes17HermesRuntimeImplENS4_12_GLOBAL__N_111HermesMutexEEESt14default_deleteIS8_EEE7_M_headERSC_(ptr noundef nonnull align 8 dereferenceable(8) %__t) #1 align 2 {
entry:
  %__t.addr = alloca ptr, align 8
  store ptr %__t, ptr %__t.addr, align 8
  %0 = load ptr, ptr %__t.addr, align 8
  %call = call noundef nonnull align 8 dereferenceable(8) ptr @_ZNSt10_Head_baseILm0EPN8facebook3jsi6detail21ThreadSafeRuntimeImplINS0_6hermes17HermesRuntimeImplENS4_12_GLOBAL__N_111HermesMutexEEELb0EE7_M_headERSA_(ptr noundef nonnull align 8 dereferenceable(8) %0) #19
  ret ptr %call
}

; Function Attrs: mustprogress nounwind uwtable
define internal void @_ZN8facebook3jsi20WithRuntimeDecoratorINS0_6detail8WithLockINS_6hermes17HermesRuntimeImplENS4_12_GLOBAL__N_111HermesMutexEEES5_NS0_17ThreadSafeRuntimeEED2Ev(ptr noundef nonnull align 8 dereferenceable(32) %this) unnamed_addr #1 align 2 {
entry:
  %this.addr = alloca ptr, align 8
  store ptr %this, ptr %this.addr, align 8
  %this1 = load ptr, ptr %this.addr, align 8
  call void @_ZN8facebook3jsi16RuntimeDecoratorINS_6hermes17HermesRuntimeImplENS0_17ThreadSafeRuntimeEED2Ev(ptr noundef nonnull align 8 dereferenceable(24) %this1) #19
  ret void
}

; Function Attrs: mustprogress nounwind uwtable
define internal noundef nonnull align 1 dereferenceable(1) ptr @_ZSt3getILm1EJPN8facebook3jsi6detail21ThreadSafeRuntimeImplINS0_6hermes17HermesRuntimeImplENS4_12_GLOBAL__N_111HermesMutexEEESt14default_deleteIS8_EEERNSt13tuple_elementIXT_ESt5tupleIJDpT0_EEE4typeERSG_(ptr noundef nonnull align 8 dereferenceable(8) %__t) #1 {
entry:
  %__t.addr = alloca ptr, align 8
  store ptr %__t, ptr %__t.addr, align 8
  %0 = load ptr, ptr %__t.addr, align 8
  %call = call noundef nonnull align 1 dereferenceable(1) ptr @_ZSt12__get_helperILm1ESt14default_deleteIN8facebook3jsi6detail21ThreadSafeRuntimeImplINS1_6hermes17HermesRuntimeImplENS5_12_GLOBAL__N_111HermesMutexEEEEJEERT0_RSt11_Tuple_implIXT_EJSB_DpT1_EE(ptr noundef nonnull align 1 dereferenceable(1) %0) #19
  ret ptr %call
}

; Function Attrs: mustprogress nounwind uwtable
define internal noundef nonnull align 8 dereferenceable(8) ptr @_ZSt12__get_helperILm0EPN8facebook3jsi6detail21ThreadSafeRuntimeImplINS0_6hermes17HermesRuntimeImplENS4_12_GLOBAL__N_111HermesMutexEEEJSt14default_deleteIS8_EEERT0_RSt11_Tuple_implIXT_EJSC_DpT1_EE(ptr noundef nonnull align 8 dereferenceable(8) %__t) #1 {
entry:
  %__t.addr = alloca ptr, align 8
  store ptr %__t, ptr %__t.addr, align 8
  %0 = load ptr, ptr %__t.addr, align 8
  %call = call noundef nonnull align 8 dereferenceable(8) ptr @_ZNSt11_Tuple_implILm0EJPN8facebook3jsi6detail21ThreadSafeRuntimeImplINS0_6hermes17HermesRuntimeImplENS4_12_GLOBAL__N_111HermesMutexEEESt14default_deleteIS8_EEE7_M_headERSC_(ptr noundef nonnull align 8 dereferenceable(8) %0) #19
  ret ptr %call
}

; Function Attrs: mustprogress nounwind uwtable
define internal void @_ZN8facebook3jsi6detail21ThreadSafeRuntimeImplINS_6hermes17HermesRuntimeImplENS3_12_GLOBAL__N_111HermesMutexEED2Ev(ptr noundef nonnull align 8 dereferenceable(256) %this) unnamed_addr #1 align 2 {
entry:
  %this.addr = alloca ptr, align 8
  store ptr %this, ptr %this.addr, align 8
  %this1 = load ptr, ptr %this.addr, align 8
  %unsafe_ = getelementptr inbounds %"class.facebook::jsi::detail::ThreadSafeRuntimeImpl", ptr %this1, i32 0, i32 1
  call void @_ZN8facebook6hermes17HermesRuntimeImplD2Ev(ptr noundef nonnull align 8 dereferenceable(184) %unsafe_) #19
  call void @_ZN8facebook3jsi20WithRuntimeDecoratorINS0_6detail8WithLockINS_6hermes17HermesRuntimeImplENS4_12_GLOBAL__N_111HermesMutexEEES5_NS0_17ThreadSafeRuntimeEED2Ev(ptr noundef nonnull align 8 dereferenceable(32) %this1) #19
  ret void
}

; Function Attrs: mustprogress nounwind uwtable
define internal noundef nonnull align 1 dereferenceable(1) ptr @_ZNSt15__uniq_ptr_implIN8facebook3jsi6detail21ThreadSafeRuntimeImplINS0_6hermes17HermesRuntimeImplENS4_12_GLOBAL__N_111HermesMutexEEESt14default_deleteIS8_EE10_M_deleterEv(ptr noundef nonnull align 8 dereferenceable(8) %this) #1 align 2 {
entry:
  %this.addr = alloca ptr, align 8
  store ptr %this, ptr %this.addr, align 8
  %this1 = load ptr, ptr %this.addr, align 8
  %_M_t = getelementptr inbounds %"class.std::__uniq_ptr_impl.439", ptr %this1, i32 0, i32 0
  %call = call noundef nonnull align 1 dereferenceable(1) ptr @_ZSt3getILm1EJPN8facebook3jsi6detail21ThreadSafeRuntimeImplINS0_6hermes17HermesRuntimeImplENS4_12_GLOBAL__N_111HermesMutexEEESt14default_deleteIS8_EEERNSt13tuple_elementIXT_ESt5tupleIJDpT0_EEE4typeERSG_(ptr noundef nonnull align 8 dereferenceable(8) %_M_t) #19
  ret ptr %call
}

; Function Attrs: mustprogress nounwind uwtable
define internal noundef nonnull align 8 dereferenceable(8) ptr @_ZSt3getILm0EJPN8facebook3jsi6detail21ThreadSafeRuntimeImplINS0_6hermes17HermesRuntimeImplENS4_12_GLOBAL__N_111HermesMutexEEESt14default_deleteIS8_EEERNSt13tuple_elementIXT_ESt5tupleIJDpT0_EEE4typeERSG_(ptr noundef nonnull align 8 dereferenceable(8) %__t) #1 {
entry:
  %__t.addr = alloca ptr, align 8
  store ptr %__t, ptr %__t.addr, align 8
  %0 = load ptr, ptr %__t.addr, align 8
  %call = call noundef nonnull align 8 dereferenceable(8) ptr @_ZSt12__get_helperILm0EPN8facebook3jsi6detail21ThreadSafeRuntimeImplINS0_6hermes17HermesRuntimeImplENS4_12_GLOBAL__N_111HermesMutexEEEJSt14default_deleteIS8_EEERT0_RSt11_Tuple_implIXT_EJSC_DpT1_EE(ptr noundef nonnull align 8 dereferenceable(8) %0) #19
  ret ptr %call
}

; Function Attrs: noreturn nounwind uwtable
define linkonce_odr hidden void @__clang_call_terminate(ptr noundef %0) #13 comdat {
  %2 = call ptr @__cxa_begin_catch(ptr %0) #19
  call void @_ZSt9terminatev() #23
  unreachable
}

; Function Attrs: mustprogress nounwind uwtable
define internal void @_ZNKSt14default_deleteIN8facebook3jsi6detail21ThreadSafeRuntimeImplINS0_6hermes17HermesRuntimeImplENS4_12_GLOBAL__N_111HermesMutexEEEEclEPS8_(ptr noundef nonnull align 1 dereferenceable(1) %this, ptr noundef %__ptr) #1 align 2 {
entry:
  %this.addr = alloca ptr, align 8
  %__ptr.addr = alloca ptr, align 8
  store ptr %this, ptr %this.addr, align 8
  store ptr %__ptr, ptr %__ptr.addr, align 8
  %0 = load ptr, ptr %__ptr.addr, align 8
  %isnull = icmp eq ptr %0, null
  br i1 %isnull, label %delete.end, label %delete.notnull

delete.notnull:                                   ; preds = %entry
  call void @_ZN8facebook3jsi6detail21ThreadSafeRuntimeImplINS_6hermes17HermesRuntimeImplENS3_12_GLOBAL__N_111HermesMutexEED2Ev(ptr noundef nonnull align 8 dereferenceable(256) %0) #19
  call void @_ZdlPv(ptr noundef %0) #25
  br label %delete.end

delete.end:                                       ; preds = %delete.notnull, %entry
  ret void
}

; Function Attrs: mustprogress nounwind uwtable
define internal noundef nonnull align 1 dereferenceable(1) ptr @_ZNSt10unique_ptrIN8facebook3jsi6detail21ThreadSafeRuntimeImplINS0_6hermes17HermesRuntimeImplENS4_12_GLOBAL__N_111HermesMutexEEESt14default_deleteIS8_EE11get_deleterEv(ptr noundef nonnull align 8 dereferenceable(8) %this) #1 align 2 {
entry:
  %this.addr = alloca ptr, align 8
  store ptr %this, ptr %this.addr, align 8
  %this1 = load ptr, ptr %this.addr, align 8
  %_M_t = getelementptr inbounds %"class.std::unique_ptr.437", ptr %this1, i32 0, i32 0
  %call = call noundef nonnull align 1 dereferenceable(1) ptr @_ZNSt15__uniq_ptr_implIN8facebook3jsi6detail21ThreadSafeRuntimeImplINS0_6hermes17HermesRuntimeImplENS4_12_GLOBAL__N_111HermesMutexEEESt14default_deleteIS8_EE10_M_deleterEv(ptr noundef nonnull align 8 dereferenceable(8) %_M_t) #19
  ret ptr %call
}

; Function Attrs: mustprogress nounwind uwtable
define internal noundef nonnull align 8 dereferenceable(8) ptr @_ZNSt15__uniq_ptr_implIN8facebook3jsi6detail21ThreadSafeRuntimeImplINS0_6hermes17HermesRuntimeImplENS4_12_GLOBAL__N_111HermesMutexEEESt14default_deleteIS8_EE6_M_ptrEv(ptr noundef nonnull align 8 dereferenceable(8) %this) #1 align 2 {
entry:
  %this.addr = alloca ptr, align 8
  store ptr %this, ptr %this.addr, align 8
  %this1 = load ptr, ptr %this.addr, align 8
  %_M_t = getelementptr inbounds %"class.std::__uniq_ptr_impl.439", ptr %this1, i32 0, i32 0
  %call = call noundef nonnull align 8 dereferenceable(8) ptr @_ZSt3getILm0EJPN8facebook3jsi6detail21ThreadSafeRuntimeImplINS0_6hermes17HermesRuntimeImplENS4_12_GLOBAL__N_111HermesMutexEEESt14default_deleteIS8_EEERNSt13tuple_elementIXT_ESt5tupleIJDpT0_EEE4typeERSG_(ptr noundef nonnull align 8 dereferenceable(8) %_M_t) #19
  ret ptr %call
}

; Function Attrs: mustprogress nounwind uwtable
define internal void @_ZNSt10unique_ptrIN8facebook3jsi6detail21ThreadSafeRuntimeImplINS0_6hermes17HermesRuntimeImplENS4_12_GLOBAL__N_111HermesMutexEEESt14default_deleteIS8_EED2Ev(ptr noundef nonnull align 8 dereferenceable(8) %this) unnamed_addr #1 align 2 personality ptr @__gxx_personality_v0 {
entry:
  %this.addr = alloca ptr, align 8
  %__ptr = alloca ptr, align 8
  store ptr %this, ptr %this.addr, align 8
  %this1 = load ptr, ptr %this.addr, align 8
  %_M_t = getelementptr inbounds %"class.std::unique_ptr.437", ptr %this1, i32 0, i32 0
  %call = call noundef nonnull align 8 dereferenceable(8) ptr @_ZNSt15__uniq_ptr_implIN8facebook3jsi6detail21ThreadSafeRuntimeImplINS0_6hermes17HermesRuntimeImplENS4_12_GLOBAL__N_111HermesMutexEEESt14default_deleteIS8_EE6_M_ptrEv(ptr noundef nonnull align 8 dereferenceable(8) %_M_t) #19
  store ptr %call, ptr %__ptr, align 8
  %0 = load ptr, ptr %__ptr, align 8
  %1 = load ptr, ptr %0, align 8
  %cmp = icmp ne ptr %1, null
  br i1 %cmp, label %if.then, label %if.end

if.then:                                          ; preds = %entry
  %call2 = call noundef nonnull align 1 dereferenceable(1) ptr @_ZNSt10unique_ptrIN8facebook3jsi6detail21ThreadSafeRuntimeImplINS0_6hermes17HermesRuntimeImplENS4_12_GLOBAL__N_111HermesMutexEEESt14default_deleteIS8_EE11get_deleterEv(ptr noundef nonnull align 8 dereferenceable(8) %this1) #19
  %2 = load ptr, ptr %__ptr, align 8
  %3 = load ptr, ptr %2, align 8
  invoke void @_ZNKSt14default_deleteIN8facebook3jsi6detail21ThreadSafeRuntimeImplINS0_6hermes17HermesRuntimeImplENS4_12_GLOBAL__N_111HermesMutexEEEEclEPS8_(ptr noundef nonnull align 1 dereferenceable(1) %call2, ptr noundef %3)
          to label %invoke.cont unwind label %terminate.lpad

invoke.cont:                                      ; preds = %if.then
  br label %if.end

if.end:                                           ; preds = %invoke.cont, %entry
  %4 = load ptr, ptr %__ptr, align 8
  store ptr null, ptr %4, align 8
  ret void

terminate.lpad:                                   ; preds = %if.then
  %5 = landingpad { ptr, i32 }
          catch ptr null
  %6 = extractvalue { ptr, i32 } %5, 0
  call void @__clang_call_terminate(ptr %6) #23
  unreachable
}