; Function Attrs: mustprogress nounwind uwtable
define internal fastcc void @_ZNSt10unique_ptrIN8facebook3jsi6detail21ThreadSafeRuntimeImplINS0_6hermes17HermesRuntimeImplENS4_12_GLOBAL__N_111HermesMutexEEESt14default_deleteIS8_EED2Ev(ptr nocapture noundef nonnull align 8 dereferenceable(8) %this) unnamed_addr #6 align 2 personality ptr @__gxx_personality_v0 {
entry:
  %0 = load ptr, ptr %this, align 8
  %cmp.not = icmp eq ptr %0, null
  br i1 %cmp.not, label %if.end, label %_ZNKSt14default_deleteIN8facebook3jsi6detail21ThreadSafeRuntimeImplINS0_6hermes17HermesRuntimeImplENS4_12_GLOBAL__N_111HermesMutexEEEEclEPS8_.exit

_ZNKSt14default_deleteIN8facebook3jsi6detail21ThreadSafeRuntimeImplINS0_6hermes17HermesRuntimeImplENS4_12_GLOBAL__N_111HermesMutexEEEEclEPS8_.exit: ; preds = %entry
  %unsafe_.i.i = getelementptr inbounds i8, ptr %0, i64 32
  tail call void @_ZN8facebook6hermes17HermesRuntimeImplD2Ev(ptr noundef nonnull align 8 dereferenceable(184) %unsafe_.i.i) #37
  tail call void @_ZN8facebook3jsi7RuntimeD2Ev(ptr noundef nonnull align 8 dereferenceable(8) %0) #37
  tail call void @_ZdlPv(ptr noundef nonnull %0) #41
  br label %if.end

if.end:                                           ; preds = %_ZNKSt14default_deleteIN8facebook3jsi6detail21ThreadSafeRuntimeImplINS0_6hermes17HermesRuntimeImplENS4_12_GLOBAL__N_111HermesMutexEEEEclEPS8_.exit, %entry
  store ptr null, ptr %this, align 8
  ret void
}